target datalayout = "e-m:e-p270:32:32-p271:32:32-p272:64:64-i64:64-i128:128-f80:128-n8:16:32:64-S128"
target triple = "x86_64-pc-linux-gnu"

%"class.clang::SourceLocation" = type { i32 }
%"class.clang::SourceRange" = type { %"class.clang::SourceLocation", %"class.clang::SourceLocation" }
%"class.clang::AttributeCommonInfo" = type { ptr, ptr, %"class.clang::SourceRange", %"class.clang::SourceLocation", i32 }
%"class.clang::InheritableAttr.base" = type { %"class.clang::Attr.base" }
%"class.clang::Attr.base" = type <{ %"class.clang::AttributeCommonInfo", i16, i8 }>
%"class.clang::LocksExcludedAttr" = type { %"class.clang::InheritableAttr.base", i32, ptr }

; Function Attrs: mustprogress nounwind uwtable
define linkonce_odr hidden noundef ptr @_ZNK5clang17LocksExcludedAttr8args_endEv(ptr noundef nonnull align 8 dereferenceable(48) %0) #0 comdat align 2 {
  %2 = alloca ptr, align 8
  store ptr %0, ptr %2, align 8
  %3 = load ptr, ptr %2, align 8
  %4 = getelementptr inbounds nuw %"class.clang::LocksExcludedAttr", ptr %3, i32 0, i32 2
  %5 = load ptr, ptr %4, align 8
  %6 = getelementptr inbounds nuw %"class.clang::LocksExcludedAttr", ptr %3, i32 0, i32 1
  %7 = load i32, ptr %6, align 4
  %8 = zext i32 %7 to i64
  %9 = getelementptr inbounds ptr, ptr %5, i64 %8
  ret ptr %9
}

; Function Attrs: mustprogress nounwind uwtable
define linkonce_odr hidden noundef ptr @_ZNK5clang17LocksExcludedAttr10args_beginEv(ptr noundef nonnull align 8 dereferenceable(48) %0) #0 comdat align 2 {
  %2 = alloca ptr, align 8
  store ptr %0, ptr %2, align 8
  %3 = load ptr, ptr %2, align 8
  %4 = getelementptr inbounds nuw %"class.clang::LocksExcludedAttr", ptr %3, i32 0, i32 2
  %5 = load ptr, ptr %4, align 8
  ret ptr %5
}

; Function Attrs: mustprogress nounwind uwtable
define internal noundef zeroext i1 @_ZN5clang19RecursiveASTVisitorIN12_GLOBAL__N_120FindSuperCallVisitorEE22VisitLocksExcludedAttrEPNS_17LocksExcludedAttrE(ptr noundef nonnull align 1 dereferenceable(1) %0, ptr noundef %1) #0 align 2 {
  %3 = alloca ptr, align 8
  %4 = alloca ptr, align 8
  store ptr %0, ptr %3, align 8
  store ptr %1, ptr %4, align 8
  ret i1 true
}

; Function Attrs: mustprogress nounwind uwtable
define internal noundef zeroext i1 @_ZN5clang19RecursiveASTVisitorIN12_GLOBAL__N_120FindSuperCallVisitorEE9VisitAttrEPNS_4AttrE(ptr noundef nonnull align 1 dereferenceable(1) %0, ptr noundef %1) #0 align 2 {
  %3 = alloca ptr, align 8
  %4 = alloca ptr, align 8
  store ptr %0, ptr %3, align 8
  store ptr %1, ptr %4, align 8
  ret i1 true
}

; Function Attrs: mustprogress nounwind uwtable
define internal noundef nonnull align 8 dereferenceable(16) ptr @_ZN5clang19RecursiveASTVisitorIN12_GLOBAL__N_120FindSuperCallVisitorEE10getDerivedEv(ptr noundef nonnull align 1 dereferenceable(1) %0) #0 align 2 {
  %2 = alloca ptr, align 8
  store ptr %0, ptr %2, align 8
  %3 = load ptr, ptr %2, align 8
  ret ptr %3
}

; Function Attrs: mustprogress nounwind uwtable
define internal noundef zeroext i1 @_ZN5clang19RecursiveASTVisitorIN12_GLOBAL__N_120FindSuperCallVisitorEE25TraverseLocksExcludedAttrEPNS_17LocksExcludedAttrE(ptr noundef nonnull align 1 dereferenceable(1) %0, ptr noundef %1) #0 align 2 {
  %3 = alloca i1, align 1
  %4 = alloca ptr, align 8
  %5 = alloca ptr, align 8
  %6 = alloca ptr, align 8
  %7 = alloca ptr, align 8
  store ptr %0, ptr %4, align 8
  store ptr %1, ptr %5, align 8
  %8 = load ptr, ptr %4, align 8
  %9 = call noundef nonnull align 8 dereferenceable(16) ptr @_ZN5clang19RecursiveASTVisitorIN12_GLOBAL__N_120FindSuperCallVisitorEE10getDerivedEv(ptr noundef nonnull align 1 dereferenceable(1) %8)
  %10 = load ptr, ptr %5, align 8
  %11 = call noundef zeroext i1 @_ZN5clang19RecursiveASTVisitorIN12_GLOBAL__N_120FindSuperCallVisitorEE9VisitAttrEPNS_4AttrE(ptr noundef nonnull align 1 dereferenceable(1) %9, ptr noundef %10)
  br i1 %11, label %13, label %12

12:                                               ; preds = %2
  store i1 false, ptr %3, align 1
  br label %38

13:                                               ; preds = %2
  %14 = call noundef nonnull align 8 dereferenceable(16) ptr @_ZN5clang19RecursiveASTVisitorIN12_GLOBAL__N_120FindSuperCallVisitorEE10getDerivedEv(ptr noundef nonnull align 1 dereferenceable(1) %8)
  %15 = load ptr, ptr %5, align 8
  %16 = call noundef zeroext i1 @_ZN5clang19RecursiveASTVisitorIN12_GLOBAL__N_120FindSuperCallVisitorEE22VisitLocksExcludedAttrEPNS_17LocksExcludedAttrE(ptr noundef nonnull align 1 dereferenceable(1) %14, ptr noundef %15)
  br i1 %16, label %18, label %17

17:                                               ; preds = %13
  store i1 false, ptr %3, align 1
  br label %38

18:                                               ; preds = %13
  %19 = load ptr, ptr %5, align 8
  %20 = call noundef ptr @_ZNK5clang17LocksExcludedAttr10args_beginEv(ptr noundef nonnull align 8 dereferenceable(48) %19)
  store ptr %20, ptr %6, align 8
  %21 = load ptr, ptr %5, align 8
  %22 = call noundef ptr @_ZNK5clang17LocksExcludedAttr8args_endEv(ptr noundef nonnull align 8 dereferenceable(48) %21)
  store ptr %22, ptr %7, align 8
  br label %23

23:                                               ; preds = %34, %18
  %24 = load ptr, ptr %6, align 8
  %25 = load ptr, ptr %7, align 8
  %26 = icmp ne ptr %24, %25
  br i1 %26, label %27, label %37

27:                                               ; preds = %23
  %28 = call noundef nonnull align 8 dereferenceable(16) ptr @_ZN5clang19RecursiveASTVisitorIN12_GLOBAL__N_120FindSuperCallVisitorEE10getDerivedEv(ptr noundef nonnull align 1 dereferenceable(1) %8)
  %29 = load ptr, ptr %6, align 8
  %30 = load ptr, ptr %29, align 8
  %31 = call noundef zeroext i1 @_ZN5clang19RecursiveASTVisitorIN12_GLOBAL__N_120FindSuperCallVisitorEE12TraverseStmtEPNS_4StmtEPN4llvm15SmallVectorImplINS6_14PointerIntPairIS5_Lj1EbNS6_21PointerLikeTypeTraitsIS5_EENS6_18PointerIntPairInfoIS5_Lj1ESA_EEEEEE(ptr noundef nonnull align 1 dereferenceable(1) %28, ptr noundef %30, ptr noundef null)
  br i1 %31, label %33, label %32

32:                                               ; preds = %27
  store i1 false, ptr %3, align 1
  br label %38

33:                                               ; preds = %27
  br label %34

34:                                               ; preds = %33
  %35 = load ptr, ptr %6, align 8
  %36 = getelementptr inbounds ptr, ptr %35, i32 1
  store ptr %36, ptr %6, align 8
  br label %23, !llvm.loop !52

37:                                               ; preds = %23
  store i1 true, ptr %3, align 1
  br label %38

38:                                               ; preds = %37, %32, %17, %12
  %39 = load i1, ptr %3, align 1
  ret i1 %39
}